target datalayout = "e-m:e-p270:32:32-p271:32:32-p272:64:64-i64:64-i128:128-f80:128-n8:16:32:64-S128"
target triple = "x86_64-pc-linux-gnu"

%struct._generic_SUNAdaptController = type { ptr, ptr, ptr }
%struct._generic_SUNAdaptController_Ops = type { ptr, ptr, ptr, ptr, ptr, ptr, ptr, ptr, ptr, ptr, ptr }
%struct._SUNAdaptControllerContent_Soderlind = type { double, double, double, double, double, double, double, double, double, double, i32 }

; Function Attrs: nounwind uwtable
define i32 @SUNAdaptController_Reset_Soderlind(ptr noundef %0) #0 {
  %2 = alloca ptr, align 8
  %3 = alloca ptr, align 8
  store ptr %0, ptr %2, align 8, !tbaa !8
  call void @llvm.lifetime.start.p0(i64 8, ptr %3) #5
  %4 = load ptr, ptr %2, align 8, !tbaa !8
  %5 = getelementptr inbounds nuw %struct._generic_SUNAdaptController, ptr %4, i32 0, i32 2
  %6 = load ptr, ptr %5, align 8, !tbaa !31
  store ptr %6, ptr %3, align 8, !tbaa !3
  %7 = load ptr, ptr %2, align 8, !tbaa !8
  %8 = getelementptr inbounds nuw %struct._generic_SUNAdaptController, ptr %7, i32 0, i32 0
  %9 = load ptr, ptr %8, align 8, !tbaa !24
  %10 = getelementptr inbounds nuw %struct._SUNAdaptControllerContent_Soderlind, ptr %9, i32 0, i32 6
  store double 1.000000e+00, ptr %10, align 8, !tbaa !39
  %11 = load ptr, ptr %2, align 8, !tbaa !8
  %12 = getelementptr inbounds nuw %struct._generic_SUNAdaptController, ptr %11, i32 0, i32 0
  %13 = load ptr, ptr %12, align 8, !tbaa !24
  %14 = getelementptr inbounds nuw %struct._SUNAdaptControllerContent_Soderlind, ptr %13, i32 0, i32 7
  store double 1.000000e+00, ptr %14, align 8, !tbaa !40
  %15 = load ptr, ptr %2, align 8, !tbaa !8
  %16 = getelementptr inbounds nuw %struct._generic_SUNAdaptController, ptr %15, i32 0, i32 0
  %17 = load ptr, ptr %16, align 8, !tbaa !24
  %18 = getelementptr inbounds nuw %struct._SUNAdaptControllerContent_Soderlind, ptr %17, i32 0, i32 8
  store double 1.000000e+00, ptr %18, align 8, !tbaa !41
  %19 = load ptr, ptr %2, align 8, !tbaa !8
  %20 = getelementptr inbounds nuw %struct._generic_SUNAdaptController, ptr %19, i32 0, i32 0
  %21 = load ptr, ptr %20, align 8, !tbaa !24
  %22 = getelementptr inbounds nuw %struct._SUNAdaptControllerContent_Soderlind, ptr %21, i32 0, i32 9
  store double 1.000000e+00, ptr %22, align 8, !tbaa !42
  %23 = load ptr, ptr %2, align 8, !tbaa !8
  %24 = getelementptr inbounds nuw %struct._generic_SUNAdaptController, ptr %23, i32 0, i32 0
  %25 = load ptr, ptr %24, align 8, !tbaa !24
  %26 = getelementptr inbounds nuw %struct._SUNAdaptControllerContent_Soderlind, ptr %25, i32 0, i32 10
  store i32 0, ptr %26, align 8, !tbaa !43
  call void @llvm.lifetime.end.p0(i64 8, ptr %3) #5
  ret i32 0
}

; Function Attrs: nounwind uwtable
define i32 @SUNAdaptController_SetDefaults_Soderlind(ptr noundef %0) #0 {
  %2 = alloca ptr, align 8
  %3 = alloca ptr, align 8
  store ptr %0, ptr %2, align 8, !tbaa !8
  call void @llvm.lifetime.start.p0(i64 8, ptr %3) #5
  %4 = load ptr, ptr %2, align 8, !tbaa !8
  %5 = getelementptr inbounds nuw %struct._generic_SUNAdaptController, ptr %4, i32 0, i32 2
  %6 = load ptr, ptr %5, align 8, !tbaa !31
  store ptr %6, ptr %3, align 8, !tbaa !3
  %7 = load ptr, ptr %2, align 8, !tbaa !8
  %8 = getelementptr inbounds nuw %struct._generic_SUNAdaptController, ptr %7, i32 0, i32 0
  %9 = load ptr, ptr %8, align 8, !tbaa !24
  %10 = getelementptr inbounds nuw %struct._SUNAdaptControllerContent_Soderlind, ptr %9, i32 0, i32 0
  store double 1.250000e+00, ptr %10, align 8, !tbaa !32
  %11 = load ptr, ptr %2, align 8, !tbaa !8
  %12 = getelementptr inbounds nuw %struct._generic_SUNAdaptController, ptr %11, i32 0, i32 0
  %13 = load ptr, ptr %12, align 8, !tbaa !24
  %14 = getelementptr inbounds nuw %struct._SUNAdaptControllerContent_Soderlind, ptr %13, i32 0, i32 1
  store double 5.000000e-01, ptr %14, align 8, !tbaa !34
  %15 = load ptr, ptr %2, align 8, !tbaa !8
  %16 = getelementptr inbounds nuw %struct._generic_SUNAdaptController, ptr %15, i32 0, i32 0
  %17 = load ptr, ptr %16, align 8, !tbaa !24
  %18 = getelementptr inbounds nuw %struct._SUNAdaptControllerContent_Soderlind, ptr %17, i32 0, i32 2
  store double -7.500000e-01, ptr %18, align 8, !tbaa !35
  %19 = load ptr, ptr %2, align 8, !tbaa !8
  %20 = getelementptr inbounds nuw %struct._generic_SUNAdaptController, ptr %19, i32 0, i32 0
  %21 = load ptr, ptr %20, align 8, !tbaa !24
  %22 = getelementptr inbounds nuw %struct._SUNAdaptControllerContent_Soderlind, ptr %21, i32 0, i32 3
  store double 2.500000e-01, ptr %22, align 8, !tbaa !36
  %23 = load ptr, ptr %2, align 8, !tbaa !8
  %24 = getelementptr inbounds nuw %struct._generic_SUNAdaptController, ptr %23, i32 0, i32 0
  %25 = load ptr, ptr %24, align 8, !tbaa !24
  %26 = getelementptr inbounds nuw %struct._SUNAdaptControllerContent_Soderlind, ptr %25, i32 0, i32 4
  store double 7.500000e-01, ptr %26, align 8, !tbaa !37
  %27 = load ptr, ptr %2, align 8, !tbaa !8
  %28 = getelementptr inbounds nuw %struct._generic_SUNAdaptController, ptr %27, i32 0, i32 0
  %29 = load ptr, ptr %28, align 8, !tbaa !24
  %30 = getelementptr inbounds nuw %struct._SUNAdaptControllerContent_Soderlind, ptr %29, i32 0, i32 5
  store double 1.500000e+00, ptr %30, align 8, !tbaa !38
  call void @llvm.lifetime.end.p0(i64 8, ptr %3) #5
  ret i32 0
}

; Function Attrs: nounwind uwtable
define i32 @SUNAdaptController_SetParams_PID(ptr noundef %0, double noundef %1, double noundef %2, double noundef %3) #0 {
  %5 = alloca ptr, align 8
  %6 = alloca double, align 8
  %7 = alloca double, align 8
  %8 = alloca double, align 8
  %9 = alloca ptr, align 8
  store ptr %0, ptr %5, align 8, !tbaa !8
  store double %1, ptr %6, align 8, !tbaa !25
  store double %2, ptr %7, align 8, !tbaa !25
  store double %3, ptr %8, align 8, !tbaa !25
  call void @llvm.lifetime.start.p0(i64 8, ptr %9) #5
  %10 = load ptr, ptr %5, align 8, !tbaa !8
  %11 = getelementptr inbounds nuw %struct._generic_SUNAdaptController, ptr %10, i32 0, i32 2
  %12 = load ptr, ptr %11, align 8, !tbaa !31
  store ptr %12, ptr %9, align 8, !tbaa !3
  %13 = load double, ptr %6, align 8, !tbaa !25
  %14 = load ptr, ptr %5, align 8, !tbaa !8
  %15 = getelementptr inbounds nuw %struct._generic_SUNAdaptController, ptr %14, i32 0, i32 0
  %16 = load ptr, ptr %15, align 8, !tbaa !24
  %17 = getelementptr inbounds nuw %struct._SUNAdaptControllerContent_Soderlind, ptr %16, i32 0, i32 0
  store double %13, ptr %17, align 8, !tbaa !32
  %18 = load double, ptr %7, align 8, !tbaa !25
  %19 = load ptr, ptr %5, align 8, !tbaa !8
  %20 = getelementptr inbounds nuw %struct._generic_SUNAdaptController, ptr %19, i32 0, i32 0
  %21 = load ptr, ptr %20, align 8, !tbaa !24
  %22 = getelementptr inbounds nuw %struct._SUNAdaptControllerContent_Soderlind, ptr %21, i32 0, i32 1
  store double %18, ptr %22, align 8, !tbaa !34
  %23 = load double, ptr %8, align 8, !tbaa !25
  %24 = load ptr, ptr %5, align 8, !tbaa !8
  %25 = getelementptr inbounds nuw %struct._generic_SUNAdaptController, ptr %24, i32 0, i32 0
  %26 = load ptr, ptr %25, align 8, !tbaa !24
  %27 = getelementptr inbounds nuw %struct._SUNAdaptControllerContent_Soderlind, ptr %26, i32 0, i32 2
  store double %23, ptr %27, align 8, !tbaa !35
  %28 = load ptr, ptr %5, align 8, !tbaa !8
  %29 = getelementptr inbounds nuw %struct._generic_SUNAdaptController, ptr %28, i32 0, i32 0
  %30 = load ptr, ptr %29, align 8, !tbaa !24
  %31 = getelementptr inbounds nuw %struct._SUNAdaptControllerContent_Soderlind, ptr %30, i32 0, i32 3
  store double 0.000000e+00, ptr %31, align 8, !tbaa !36
  %32 = load ptr, ptr %5, align 8, !tbaa !8
  %33 = getelementptr inbounds nuw %struct._generic_SUNAdaptController, ptr %32, i32 0, i32 0
  %34 = load ptr, ptr %33, align 8, !tbaa !24
  %35 = getelementptr inbounds nuw %struct._SUNAdaptControllerContent_Soderlind, ptr %34, i32 0, i32 4
  store double 0.000000e+00, ptr %35, align 8, !tbaa !37
  call void @llvm.lifetime.end.p0(i64 8, ptr %9) #5
  ret i32 0
}

; Function Attrs: nounwind uwtable
define ptr @SUNAdaptController_Soderlind(ptr noundef %0) #0 {
  %2 = alloca ptr, align 8
  %3 = alloca ptr, align 8
  %4 = alloca ptr, align 8
  %5 = alloca ptr, align 8
  store ptr %0, ptr %2, align 8, !tbaa !3
  call void @llvm.lifetime.start.p0(i64 8, ptr %3) #5
  %6 = load ptr, ptr %2, align 8, !tbaa !3
  store ptr %6, ptr %3, align 8, !tbaa !3
  call void @llvm.lifetime.start.p0(i64 8, ptr %4) #5
  call void @llvm.lifetime.start.p0(i64 8, ptr %5) #5
  store ptr null, ptr %4, align 8, !tbaa !8
  %7 = load ptr, ptr %2, align 8, !tbaa !3
  %8 = call ptr @SUNAdaptController_NewEmpty(ptr noundef %7)
  store ptr %8, ptr %4, align 8, !tbaa !8
  %9 = load ptr, ptr %4, align 8, !tbaa !8
  %10 = getelementptr inbounds nuw %struct._generic_SUNAdaptController, ptr %9, i32 0, i32 1
  %11 = load ptr, ptr %10, align 8, !tbaa !10
  %12 = getelementptr inbounds nuw %struct._generic_SUNAdaptController_Ops, ptr %11, i32 0, i32 0
  store ptr @SUNAdaptController_GetType_Soderlind, ptr %12, align 8, !tbaa !13
  %13 = load ptr, ptr %4, align 8, !tbaa !8
  %14 = getelementptr inbounds nuw %struct._generic_SUNAdaptController, ptr %13, i32 0, i32 1
  %15 = load ptr, ptr %14, align 8, !tbaa !10
  %16 = getelementptr inbounds nuw %struct._generic_SUNAdaptController_Ops, ptr %15, i32 0, i32 1
  store ptr @SUNAdaptController_EstimateStep_Soderlind, ptr %16, align 8, !tbaa !15
  %17 = load ptr, ptr %4, align 8, !tbaa !8
  %18 = getelementptr inbounds nuw %struct._generic_SUNAdaptController, ptr %17, i32 0, i32 1
  %19 = load ptr, ptr %18, align 8, !tbaa !10
  %20 = getelementptr inbounds nuw %struct._generic_SUNAdaptController_Ops, ptr %19, i32 0, i32 4
  store ptr @SUNAdaptController_Reset_Soderlind, ptr %20, align 8, !tbaa !16
  %21 = load ptr, ptr %4, align 8, !tbaa !8
  %22 = getelementptr inbounds nuw %struct._generic_SUNAdaptController, ptr %21, i32 0, i32 1
  %23 = load ptr, ptr %22, align 8, !tbaa !10
  %24 = getelementptr inbounds nuw %struct._generic_SUNAdaptController_Ops, ptr %23, i32 0, i32 5
  store ptr @SUNAdaptController_SetDefaults_Soderlind, ptr %24, align 8, !tbaa !17
  %25 = load ptr, ptr %4, align 8, !tbaa !8
  %26 = getelementptr inbounds nuw %struct._generic_SUNAdaptController, ptr %25, i32 0, i32 1
  %27 = load ptr, ptr %26, align 8, !tbaa !10
  %28 = getelementptr inbounds nuw %struct._generic_SUNAdaptController_Ops, ptr %27, i32 0, i32 6
  store ptr @SUNAdaptController_Write_Soderlind, ptr %28, align 8, !tbaa !18
  %29 = load ptr, ptr %4, align 8, !tbaa !8
  %30 = getelementptr inbounds nuw %struct._generic_SUNAdaptController, ptr %29, i32 0, i32 1
  %31 = load ptr, ptr %30, align 8, !tbaa !10
  %32 = getelementptr inbounds nuw %struct._generic_SUNAdaptController_Ops, ptr %31, i32 0, i32 7
  store ptr @SUNAdaptController_SetErrorBias_Soderlind, ptr %32, align 8, !tbaa !19
  %33 = load ptr, ptr %4, align 8, !tbaa !8
  %34 = getelementptr inbounds nuw %struct._generic_SUNAdaptController, ptr %33, i32 0, i32 1
  %35 = load ptr, ptr %34, align 8, !tbaa !10
  %36 = getelementptr inbounds nuw %struct._generic_SUNAdaptController_Ops, ptr %35, i32 0, i32 8
  store ptr @SUNAdaptController_UpdateH_Soderlind, ptr %36, align 8, !tbaa !20
  %37 = load ptr, ptr %4, align 8, !tbaa !8
  %38 = getelementptr inbounds nuw %struct._generic_SUNAdaptController, ptr %37, i32 0, i32 1
  %39 = load ptr, ptr %38, align 8, !tbaa !10
  %40 = getelementptr inbounds nuw %struct._generic_SUNAdaptController_Ops, ptr %39, i32 0, i32 10
  store ptr @SUNAdaptController_Space_Soderlind, ptr %40, align 8, !tbaa !21
  store ptr null, ptr %5, align 8, !tbaa !22
  %41 = call noalias ptr @malloc(i64 noundef 88) #6
  store ptr %41, ptr %5, align 8, !tbaa !22
  %42 = load ptr, ptr %5, align 8, !tbaa !22
  %43 = load ptr, ptr %4, align 8, !tbaa !8
  %44 = getelementptr inbounds nuw %struct._generic_SUNAdaptController, ptr %43, i32 0, i32 0
  store ptr %42, ptr %44, align 8, !tbaa !24
  %45 = load ptr, ptr %4, align 8, !tbaa !8
  %46 = call i32 @SUNAdaptController_SetDefaults_Soderlind(ptr noundef %45)
  %47 = load ptr, ptr %4, align 8, !tbaa !8
  %48 = call i32 @SUNAdaptController_Reset_Soderlind(ptr noundef %47)
  %49 = load ptr, ptr %4, align 8, !tbaa !8
  call void @llvm.lifetime.end.p0(i64 8, ptr %5) #5
  call void @llvm.lifetime.end.p0(i64 8, ptr %4) #5
  call void @llvm.lifetime.end.p0(i64 8, ptr %3) #5
  ret ptr %49
}

; Function Attrs: nounwind uwtable
define ptr @SUNAdaptController_PID(ptr noundef %0) #0 {
  %2 = alloca ptr, align 8
  %3 = alloca ptr, align 8
  %4 = alloca ptr, align 8
  store ptr %0, ptr %2, align 8, !tbaa !3
  call void @llvm.lifetime.start.p0(i64 8, ptr %3) #5
  %5 = load ptr, ptr %2, align 8, !tbaa !3
  store ptr %5, ptr %3, align 8, !tbaa !3
  call void @llvm.lifetime.start.p0(i64 8, ptr %4) #5
  %6 = load ptr, ptr %2, align 8, !tbaa !3
  %7 = call ptr @SUNAdaptController_Soderlind(ptr noundef %6)
  store ptr %7, ptr %4, align 8, !tbaa !8
  %8 = load ptr, ptr %4, align 8, !tbaa !8
  %9 = call i32 @SUNAdaptController_SetParams_PID(ptr noundef %8, double noundef 5.800000e-01, double noundef -2.100000e-01, double noundef 1.000000e-01)
  %10 = load ptr, ptr %4, align 8, !tbaa !8
  call void @llvm.lifetime.end.p0(i64 8, ptr %4) #5
  call void @llvm.lifetime.end.p0(i64 8, ptr %3) #5
  ret ptr %10
}